ARM GAS  /tmp/cc2mCGjh.s 			page 1


   1              		.cpu cortex-m4
   2              		.eabi_attribute 27, 1
   3              		.eabi_attribute 28, 1
   4              		.eabi_attribute 20, 1
   5              		.eabi_attribute 21, 1
   6              		.eabi_attribute 23, 3
   7              		.eabi_attribute 24, 1
   8              		.eabi_attribute 25, 1
   9              		.eabi_attribute 26, 1
  10              		.eabi_attribute 30, 2
  11              		.eabi_attribute 34, 1
  12              		.eabi_attribute 18, 4
  13              		.file	"gpio.c"
  14              		.text
  15              	.Ltext0:
  16              		.cfi_sections	.debug_frame
  17              		.section	.text.MX_GPIO_Init,"ax",%progbits
  18              		.align	1
  19              		.p2align 2,,3
  20              		.global	MX_GPIO_Init
  21              		.syntax unified
  22              		.thumb
  23              		.thumb_func
  24              		.fpu fpv4-sp-d16
  26              	MX_GPIO_Init:
  27              	.LFB130:
  28              		.file 1 "Src/gpio.c"
   1:Src/gpio.c    **** /**
   2:Src/gpio.c    ****   ******************************************************************************
   3:Src/gpio.c    ****   * File Name          : gpio.c
   4:Src/gpio.c    ****   * Description        : This file provides code for the configuration
   5:Src/gpio.c    ****   *                      of all used GPIO pins.
   6:Src/gpio.c    ****   ******************************************************************************
   7:Src/gpio.c    ****   * @attention
   8:Src/gpio.c    ****   *
   9:Src/gpio.c    ****   * <h2><center>&copy; Copyright (c) 2019 STMicroelectronics.
  10:Src/gpio.c    ****   * All rights reserved.</center></h2>
  11:Src/gpio.c    ****   *
  12:Src/gpio.c    ****   * This software component is licensed by ST under BSD 3-Clause license,
  13:Src/gpio.c    ****   * the "License"; You may not use this file except in compliance with the
  14:Src/gpio.c    ****   * License. You may obtain a copy of the License at:
  15:Src/gpio.c    ****   *                        opensource.org/licenses/BSD-3-Clause
  16:Src/gpio.c    ****   *
  17:Src/gpio.c    ****   ******************************************************************************
  18:Src/gpio.c    ****   */
  19:Src/gpio.c    **** 
  20:Src/gpio.c    **** /* Includes ------------------------------------------------------------------*/
  21:Src/gpio.c    **** #include "gpio.h"
  22:Src/gpio.c    **** /* USER CODE BEGIN 0 */
  23:Src/gpio.c    **** 
  24:Src/gpio.c    **** /* USER CODE END 0 */
  25:Src/gpio.c    **** 
  26:Src/gpio.c    **** /*----------------------------------------------------------------------------*/
  27:Src/gpio.c    **** /* Configure GPIO                                                             */
  28:Src/gpio.c    **** /*----------------------------------------------------------------------------*/
  29:Src/gpio.c    **** /* USER CODE BEGIN 1 */
  30:Src/gpio.c    **** 
ARM GAS  /tmp/cc2mCGjh.s 			page 2


  31:Src/gpio.c    **** /* USER CODE END 1 */
  32:Src/gpio.c    **** 
  33:Src/gpio.c    **** /** Configure pins
  34:Src/gpio.c    **** */
  35:Src/gpio.c    **** void MX_GPIO_Init(void)
  36:Src/gpio.c    **** {
  29              		.loc 1 36 0
  30              		.cfi_startproc
  31              		@ args = 0, pretend = 0, frame = 40
  32              		@ frame_needed = 0, uses_anonymous_args = 0
  33 0000 2DE9F047 		push	{r4, r5, r6, r7, r8, r9, r10, lr}
  34              	.LCFI0:
  35              		.cfi_def_cfa_offset 32
  36              		.cfi_offset 4, -32
  37              		.cfi_offset 5, -28
  38              		.cfi_offset 6, -24
  39              		.cfi_offset 7, -20
  40              		.cfi_offset 8, -16
  41              		.cfi_offset 9, -12
  42              		.cfi_offset 10, -8
  43              		.cfi_offset 14, -4
  37:Src/gpio.c    **** 
  38:Src/gpio.c    ****   GPIO_InitTypeDef GPIO_InitStruct = {0};
  44              		.loc 1 38 0
  45 0004 0024     		movs	r4, #0
  36:Src/gpio.c    **** 
  46              		.loc 1 36 0
  47 0006 8AB0     		sub	sp, sp, #40
  48              	.LCFI1:
  49              		.cfi_def_cfa_offset 72
  50              		.loc 1 38 0
  51 0008 CDE90544 		strd	r4, r4, [sp, #20]
  52 000c CDE90744 		strd	r4, r4, [sp, #28]
  53              	.LBB2:
  39:Src/gpio.c    **** 
  40:Src/gpio.c    ****   /* GPIO Ports Clock Enable */
  41:Src/gpio.c    ****   __HAL_RCC_GPIOC_CLK_ENABLE();
  54              		.loc 1 41 0
  55 0010 4C4B     		ldr	r3, .L4
  56 0012 0194     		str	r4, [sp, #4]
  57              	.LBE2:
  38:Src/gpio.c    **** 
  58              		.loc 1 38 0
  59 0014 0994     		str	r4, [sp, #36]
  60              	.LBB3:
  61              		.loc 1 41 0
  62 0016 1A6B     		ldr	r2, [r3, #48]
  63              	.LBE3:
  42:Src/gpio.c    ****   __HAL_RCC_GPIOH_CLK_ENABLE();
  43:Src/gpio.c    ****   __HAL_RCC_GPIOA_CLK_ENABLE();
  44:Src/gpio.c    ****   __HAL_RCC_GPIOB_CLK_ENABLE();
  45:Src/gpio.c    **** 
  46:Src/gpio.c    ****   /*Configure GPIO pin Output Level */
  47:Src/gpio.c    ****   HAL_GPIO_WritePin(GPIOC, CS_ENC_R_Pin|LED_R_R_Pin|LED_R_G_Pin, GPIO_PIN_SET);
  64              		.loc 1 47 0
  65 0018 DFF83481 		ldr	r8, .L4+12
  48:Src/gpio.c    **** 
ARM GAS  /tmp/cc2mCGjh.s 			page 3


  49:Src/gpio.c    ****   /*Configure GPIO pin Output Level */
  50:Src/gpio.c    ****   HAL_GPIO_WritePin(LED_R_B_GPIO_Port, LED_R_B_Pin, GPIO_PIN_SET);
  66              		.loc 1 50 0
  67 001c DFF83491 		ldr	r9, .L4+16
  51:Src/gpio.c    **** 
  52:Src/gpio.c    ****   /*Configure GPIO pin Output Level */
  53:Src/gpio.c    ****   HAL_GPIO_WritePin(GPIOA, IRLED_RSLF_Pin|MOT_L_PH_Pin|MOT_R_PH_Pin, GPIO_PIN_RESET);
  68              		.loc 1 53 0
  69 0020 494F     		ldr	r7, .L4+4
  54:Src/gpio.c    **** 
  55:Src/gpio.c    ****   /*Configure GPIO pin Output Level */
  56:Src/gpio.c    ****   HAL_GPIO_WritePin(IRLED_RFLS_GPIO_Port, IRLED_RFLS_Pin, GPIO_PIN_RESET);
  70              		.loc 1 56 0
  71 0022 4A4E     		ldr	r6, .L4+8
  72              	.LBB4:
  41:Src/gpio.c    ****   __HAL_RCC_GPIOH_CLK_ENABLE();
  73              		.loc 1 41 0
  74 0024 42F00402 		orr	r2, r2, #4
  75 0028 1A63     		str	r2, [r3, #48]
  76 002a 1A6B     		ldr	r2, [r3, #48]
  77 002c 02F00402 		and	r2, r2, #4
  78 0030 0192     		str	r2, [sp, #4]
  79 0032 019A     		ldr	r2, [sp, #4]
  80              	.LBE4:
  81              	.LBB5:
  42:Src/gpio.c    ****   __HAL_RCC_GPIOA_CLK_ENABLE();
  82              		.loc 1 42 0
  83 0034 0294     		str	r4, [sp, #8]
  84 0036 1A6B     		ldr	r2, [r3, #48]
  85 0038 42F08002 		orr	r2, r2, #128
  86 003c 1A63     		str	r2, [r3, #48]
  87 003e 1A6B     		ldr	r2, [r3, #48]
  88 0040 02F08002 		and	r2, r2, #128
  89 0044 0292     		str	r2, [sp, #8]
  90 0046 029A     		ldr	r2, [sp, #8]
  91              	.LBE5:
  92              	.LBB6:
  43:Src/gpio.c    ****   __HAL_RCC_GPIOB_CLK_ENABLE();
  93              		.loc 1 43 0
  94 0048 0394     		str	r4, [sp, #12]
  95 004a 1A6B     		ldr	r2, [r3, #48]
  96 004c 42F00102 		orr	r2, r2, #1
  97 0050 1A63     		str	r2, [r3, #48]
  98 0052 1A6B     		ldr	r2, [r3, #48]
  99 0054 02F00102 		and	r2, r2, #1
 100 0058 0392     		str	r2, [sp, #12]
 101 005a 039A     		ldr	r2, [sp, #12]
 102              	.LBE6:
 103              	.LBB7:
  44:Src/gpio.c    **** 
 104              		.loc 1 44 0
 105 005c 0494     		str	r4, [sp, #16]
 106 005e 1A6B     		ldr	r2, [r3, #48]
 107 0060 42F00202 		orr	r2, r2, #2
 108 0064 1A63     		str	r2, [r3, #48]
 109 0066 1B6B     		ldr	r3, [r3, #48]
 110 0068 03F00203 		and	r3, r3, #2
ARM GAS  /tmp/cc2mCGjh.s 			page 4


 111 006c 0493     		str	r3, [sp, #16]
 112              	.LBE7:
  47:Src/gpio.c    **** 
 113              		.loc 1 47 0
 114 006e 4046     		mov	r0, r8
 115 0070 0122     		movs	r2, #1
 116 0072 4FF46041 		mov	r1, #57344
 117              	.LBB8:
  44:Src/gpio.c    **** 
 118              		.loc 1 44 0
 119 0076 049B     		ldr	r3, [sp, #16]
 120              	.LBE8:
  47:Src/gpio.c    **** 
 121              		.loc 1 47 0
 122 0078 FFF7FEFF 		bl	HAL_GPIO_WritePin
 123              	.LVL0:
  50:Src/gpio.c    **** 
 124              		.loc 1 50 0
 125 007c 0122     		movs	r2, #1
 126 007e 4846     		mov	r0, r9
 127 0080 1146     		mov	r1, r2
 128 0082 FFF7FEFF 		bl	HAL_GPIO_WritePin
 129              	.LVL1:
  53:Src/gpio.c    **** 
 130              		.loc 1 53 0
 131 0086 2246     		mov	r2, r4
 132 0088 3846     		mov	r0, r7
 133 008a 4CF20401 		movw	r1, #49156
 134 008e FFF7FEFF 		bl	HAL_GPIO_WritePin
 135              	.LVL2:
 136              		.loc 1 56 0
 137 0092 2246     		mov	r2, r4
 138 0094 3046     		mov	r0, r6
 139 0096 4FF48051 		mov	r1, #4096
 140 009a FFF7FEFF 		bl	HAL_GPIO_WritePin
 141              	.LVL3:
  57:Src/gpio.c    **** 
  58:Src/gpio.c    ****   /*Configure GPIO pin Output Level */
  59:Src/gpio.c    ****   HAL_GPIO_WritePin(GPIOB, LED_L_R_Pin|LED_L_G_Pin|LED_L_B_Pin|CS_GYRO_Pin, GPIO_PIN_SET);
 142              		.loc 1 59 0
 143 009e 3046     		mov	r0, r6
 144 00a0 0122     		movs	r2, #1
 145 00a2 4FF46141 		mov	r1, #57600
 146 00a6 FFF7FEFF 		bl	HAL_GPIO_WritePin
 147              	.LVL4:
  60:Src/gpio.c    **** 
  61:Src/gpio.c    ****   /*Configure GPIO pin Output Level */
  62:Src/gpio.c    ****   HAL_GPIO_WritePin(CS_ENC_L_GPIO_Port, CS_ENC_L_Pin, GPIO_PIN_SET);
 148              		.loc 1 62 0
 149 00aa 0122     		movs	r2, #1
 150 00ac 3846     		mov	r0, r7
 151 00ae 4FF40051 		mov	r1, #8192
 152 00b2 FFF7FEFF 		bl	HAL_GPIO_WritePin
 153              	.LVL5:
  63:Src/gpio.c    **** 
  64:Src/gpio.c    ****   /*Configure GPIO pin : PtPin */
  65:Src/gpio.c    ****   GPIO_InitStruct.Pin = CS_ENC_R_Pin;
ARM GAS  /tmp/cc2mCGjh.s 			page 5


  66:Src/gpio.c    ****   GPIO_InitStruct.Mode = GPIO_MODE_OUTPUT_PP;
 154              		.loc 1 66 0
 155 00b6 0125     		movs	r5, #1
  65:Src/gpio.c    ****   GPIO_InitStruct.Mode = GPIO_MODE_OUTPUT_PP;
 156              		.loc 1 65 0
 157 00b8 4FF4005A 		mov	r10, #8192
  67:Src/gpio.c    ****   GPIO_InitStruct.Pull = GPIO_PULLUP;
  68:Src/gpio.c    ****   GPIO_InitStruct.Speed = GPIO_SPEED_FREQ_LOW;
  69:Src/gpio.c    ****   HAL_GPIO_Init(CS_ENC_R_GPIO_Port, &GPIO_InitStruct);
 158              		.loc 1 69 0
 159 00bc 05A9     		add	r1, sp, #20
 160 00be 4046     		mov	r0, r8
  68:Src/gpio.c    ****   HAL_GPIO_Init(CS_ENC_R_GPIO_Port, &GPIO_InitStruct);
 161              		.loc 1 68 0
 162 00c0 0894     		str	r4, [sp, #32]
  66:Src/gpio.c    ****   GPIO_InitStruct.Pull = GPIO_PULLUP;
 163              		.loc 1 66 0
 164 00c2 CDE905A5 		strd	r10, r5, [sp, #20]
  67:Src/gpio.c    ****   GPIO_InitStruct.Pull = GPIO_PULLUP;
 165              		.loc 1 67 0
 166 00c6 0795     		str	r5, [sp, #28]
 167              		.loc 1 69 0
 168 00c8 FFF7FEFF 		bl	HAL_GPIO_Init
 169              	.LVL6:
  70:Src/gpio.c    **** 
  71:Src/gpio.c    ****   /*Configure GPIO pins : PCPin PCPin */
  72:Src/gpio.c    ****   GPIO_InitStruct.Pin = LED_R_R_Pin|LED_R_G_Pin;
 170              		.loc 1 72 0
 171 00cc 4FF44043 		mov	r3, #49152
  73:Src/gpio.c    ****   GPIO_InitStruct.Mode = GPIO_MODE_OUTPUT_PP;
  74:Src/gpio.c    ****   GPIO_InitStruct.Pull = GPIO_NOPULL;
  75:Src/gpio.c    ****   GPIO_InitStruct.Speed = GPIO_SPEED_FREQ_LOW;
  76:Src/gpio.c    ****   HAL_GPIO_Init(GPIOC, &GPIO_InitStruct);
 172              		.loc 1 76 0
 173 00d0 4046     		mov	r0, r8
 174 00d2 05A9     		add	r1, sp, #20
  72:Src/gpio.c    ****   GPIO_InitStruct.Mode = GPIO_MODE_OUTPUT_PP;
 175              		.loc 1 72 0
 176 00d4 0593     		str	r3, [sp, #20]
  74:Src/gpio.c    ****   GPIO_InitStruct.Speed = GPIO_SPEED_FREQ_LOW;
 177              		.loc 1 74 0
 178 00d6 CDE90654 		strd	r5, r4, [sp, #24]
  75:Src/gpio.c    ****   HAL_GPIO_Init(GPIOC, &GPIO_InitStruct);
 179              		.loc 1 75 0
 180 00da 0894     		str	r4, [sp, #32]
 181              		.loc 1 76 0
 182 00dc FFF7FEFF 		bl	HAL_GPIO_Init
 183              	.LVL7:
  77:Src/gpio.c    **** 
  78:Src/gpio.c    ****   /*Configure GPIO pin : PtPin */
  79:Src/gpio.c    ****   GPIO_InitStruct.Pin = LED_R_B_Pin;
  80:Src/gpio.c    ****   GPIO_InitStruct.Mode = GPIO_MODE_OUTPUT_PP;
  81:Src/gpio.c    ****   GPIO_InitStruct.Pull = GPIO_NOPULL;
  82:Src/gpio.c    ****   GPIO_InitStruct.Speed = GPIO_SPEED_FREQ_LOW;
  83:Src/gpio.c    ****   HAL_GPIO_Init(LED_R_B_GPIO_Port, &GPIO_InitStruct);
 184              		.loc 1 83 0
 185 00e0 4846     		mov	r0, r9
ARM GAS  /tmp/cc2mCGjh.s 			page 6


 186 00e2 05A9     		add	r1, sp, #20
  80:Src/gpio.c    ****   GPIO_InitStruct.Pull = GPIO_NOPULL;
 187              		.loc 1 80 0
 188 00e4 CDE90555 		strd	r5, r5, [sp, #20]
  82:Src/gpio.c    ****   HAL_GPIO_Init(LED_R_B_GPIO_Port, &GPIO_InitStruct);
 189              		.loc 1 82 0
 190 00e8 CDE90744 		strd	r4, r4, [sp, #28]
 191              		.loc 1 83 0
 192 00ec FFF7FEFF 		bl	HAL_GPIO_Init
 193              	.LVL8:
  84:Src/gpio.c    **** 
  85:Src/gpio.c    ****   /*Configure GPIO pins : PAPin PAPin PAPin */
  86:Src/gpio.c    ****   GPIO_InitStruct.Pin = IRLED_RSLF_Pin|MOT_L_PH_Pin|MOT_R_PH_Pin;
  87:Src/gpio.c    ****   GPIO_InitStruct.Mode = GPIO_MODE_OUTPUT_PP;
  88:Src/gpio.c    ****   GPIO_InitStruct.Pull = GPIO_NOPULL;
  89:Src/gpio.c    ****   GPIO_InitStruct.Speed = GPIO_SPEED_FREQ_LOW;
  90:Src/gpio.c    ****   HAL_GPIO_Init(GPIOA, &GPIO_InitStruct);
 194              		.loc 1 90 0
 195 00f0 05A9     		add	r1, sp, #20
 196 00f2 3846     		mov	r0, r7
  86:Src/gpio.c    ****   GPIO_InitStruct.Mode = GPIO_MODE_OUTPUT_PP;
 197              		.loc 1 86 0
 198 00f4 4CF20403 		movw	r3, #49156
 199 00f8 0593     		str	r3, [sp, #20]
  88:Src/gpio.c    ****   GPIO_InitStruct.Speed = GPIO_SPEED_FREQ_LOW;
 200              		.loc 1 88 0
 201 00fa CDE90654 		strd	r5, r4, [sp, #24]
  89:Src/gpio.c    ****   HAL_GPIO_Init(GPIOA, &GPIO_InitStruct);
 202              		.loc 1 89 0
 203 00fe 0894     		str	r4, [sp, #32]
 204              		.loc 1 90 0
 205 0100 FFF7FEFF 		bl	HAL_GPIO_Init
 206              	.LVL9:
  91:Src/gpio.c    **** 
  92:Src/gpio.c    ****   /*Configure GPIO pins : PBPin PBPin PBPin PBPin */
  93:Src/gpio.c    ****   GPIO_InitStruct.Pin = IRLED_RFLS_Pin|LED_L_R_Pin|LED_L_G_Pin|LED_L_B_Pin;
 207              		.loc 1 93 0
 208 0104 4FF47043 		mov	r3, #61440
  94:Src/gpio.c    ****   GPIO_InitStruct.Mode = GPIO_MODE_OUTPUT_PP;
  95:Src/gpio.c    ****   GPIO_InitStruct.Pull = GPIO_NOPULL;
  96:Src/gpio.c    ****   GPIO_InitStruct.Speed = GPIO_SPEED_FREQ_LOW;
  97:Src/gpio.c    ****   HAL_GPIO_Init(GPIOB, &GPIO_InitStruct);
 209              		.loc 1 97 0
 210 0108 05A9     		add	r1, sp, #20
 211 010a 3046     		mov	r0, r6
  93:Src/gpio.c    ****   GPIO_InitStruct.Mode = GPIO_MODE_OUTPUT_PP;
 212              		.loc 1 93 0
 213 010c 0593     		str	r3, [sp, #20]
  95:Src/gpio.c    ****   GPIO_InitStruct.Speed = GPIO_SPEED_FREQ_LOW;
 214              		.loc 1 95 0
 215 010e CDE90654 		strd	r5, r4, [sp, #24]
  96:Src/gpio.c    ****   HAL_GPIO_Init(GPIOB, &GPIO_InitStruct);
 216              		.loc 1 96 0
 217 0112 0894     		str	r4, [sp, #32]
 218              		.loc 1 97 0
 219 0114 FFF7FEFF 		bl	HAL_GPIO_Init
 220              	.LVL10:
ARM GAS  /tmp/cc2mCGjh.s 			page 7


  98:Src/gpio.c    **** 
  99:Src/gpio.c    ****   /*Configure GPIO pin : PtPin */
 100:Src/gpio.c    ****   GPIO_InitStruct.Pin = CS_ENC_L_Pin;
 101:Src/gpio.c    ****   GPIO_InitStruct.Mode = GPIO_MODE_OUTPUT_PP;
 102:Src/gpio.c    ****   GPIO_InitStruct.Pull = GPIO_PULLUP;
 103:Src/gpio.c    ****   GPIO_InitStruct.Speed = GPIO_SPEED_FREQ_LOW;
 104:Src/gpio.c    ****   HAL_GPIO_Init(CS_ENC_L_GPIO_Port, &GPIO_InitStruct);
 221              		.loc 1 104 0
 222 0118 3846     		mov	r0, r7
 223 011a 05A9     		add	r1, sp, #20
 101:Src/gpio.c    ****   GPIO_InitStruct.Pull = GPIO_PULLUP;
 224              		.loc 1 101 0
 225 011c CDE905A5 		strd	r10, r5, [sp, #20]
 103:Src/gpio.c    ****   HAL_GPIO_Init(CS_ENC_L_GPIO_Port, &GPIO_InitStruct);
 226              		.loc 1 103 0
 227 0120 CDE90754 		strd	r5, r4, [sp, #28]
 228              		.loc 1 104 0
 229 0124 FFF7FEFF 		bl	HAL_GPIO_Init
 230              	.LVL11:
 105:Src/gpio.c    **** 
 106:Src/gpio.c    ****   /*Configure GPIO pin : PtPin */
 107:Src/gpio.c    ****   GPIO_InitStruct.Pin = CS_GYRO_Pin;
 231              		.loc 1 107 0
 232 0128 4FF48073 		mov	r3, #256
 108:Src/gpio.c    ****   GPIO_InitStruct.Mode = GPIO_MODE_OUTPUT_PP;
 109:Src/gpio.c    ****   GPIO_InitStruct.Pull = GPIO_PULLUP;
 110:Src/gpio.c    ****   GPIO_InitStruct.Speed = GPIO_SPEED_FREQ_LOW;
 111:Src/gpio.c    ****   HAL_GPIO_Init(CS_GYRO_GPIO_Port, &GPIO_InitStruct);
 233              		.loc 1 111 0
 234 012c 05A9     		add	r1, sp, #20
 235 012e 3046     		mov	r0, r6
 109:Src/gpio.c    ****   GPIO_InitStruct.Speed = GPIO_SPEED_FREQ_LOW;
 236              		.loc 1 109 0
 237 0130 CDE90655 		strd	r5, r5, [sp, #24]
 110:Src/gpio.c    ****   HAL_GPIO_Init(CS_GYRO_GPIO_Port, &GPIO_InitStruct);
 238              		.loc 1 110 0
 239 0134 0894     		str	r4, [sp, #32]
 107:Src/gpio.c    ****   GPIO_InitStruct.Mode = GPIO_MODE_OUTPUT_PP;
 240              		.loc 1 107 0
 241 0136 0593     		str	r3, [sp, #20]
 242              		.loc 1 111 0
 243 0138 FFF7FEFF 		bl	HAL_GPIO_Init
 244              	.LVL12:
 112:Src/gpio.c    **** 
 113:Src/gpio.c    **** }
 245              		.loc 1 113 0
 246 013c 0AB0     		add	sp, sp, #40
 247              	.LCFI2:
 248              		.cfi_def_cfa_offset 32
 249              		@ sp needed
 250 013e BDE8F087 		pop	{r4, r5, r6, r7, r8, r9, r10, pc}
 251              	.L5:
 252 0142 00BF     		.align	2
 253              	.L4:
 254 0144 00380240 		.word	1073887232
 255 0148 00000240 		.word	1073872896
 256 014c 00040240 		.word	1073873920
ARM GAS  /tmp/cc2mCGjh.s 			page 8


 257 0150 00080240 		.word	1073874944
 258 0154 001C0240 		.word	1073880064
 259              		.cfi_endproc
 260              	.LFE130:
 262              		.text
 263              	.Letext0:
 264              		.file 2 "/usr/arm-none-eabi/include/machine/_default_types.h"
 265              		.file 3 "/usr/arm-none-eabi/include/sys/_stdint.h"
 266              		.file 4 "Drivers/CMSIS/Include/core_cm4.h"
 267              		.file 5 "Drivers/CMSIS/Device/ST/STM32F4xx/Include/system_stm32f4xx.h"
 268              		.file 6 "Drivers/CMSIS/Device/ST/STM32F4xx/Include/stm32f413xx.h"
 269              		.file 7 "Drivers/STM32F4xx_HAL_Driver/Inc/stm32f4xx_hal_gpio.h"
ARM GAS  /tmp/cc2mCGjh.s 			page 9

